; Function Attrs: mustprogress uwtable
define void @_ZNK24InterfaceSortFilterModel11mapToSourceERK11QModelIndex(ptr dead_on_unwind noalias writable sret(%class.QModelIndex) align 8 %0, ptr noundef nonnull align 8 dereferenceable(72) %1, ptr noundef nonnull align 8 dereferenceable(24) %2) unnamed_addr #0 align 2 {
  %4 = alloca %class.QModelIndex, align 8
  %5 = alloca %class.QModelIndex, align 8
  %6 = load i32, ptr %2, align 8
  %7 = icmp sgt i32 %6, -1
  %8 = getelementptr inbounds i8, ptr %2, i64 4
  %9 = load i32, ptr %8, align 4
  %10 = icmp sgt i32 %9, -1
  %or.cond.i = select i1 %7, i1 %10, i1 false
  %11 = getelementptr inbounds i8, ptr %2, i64 16
  %12 = load ptr, ptr %11, align 8
  %13 = icmp ne ptr %12, null
  %or.cond = select i1 %or.cond.i, i1 %13, i1 false
  br i1 %or.cond, label %16, label %_ZNK11QModelIndex7isValidEv.exit.thread

_ZNK11QModelIndex7isValidEv.exit.thread:          ; preds = %3
  store i32 -1, ptr %0, align 8
  %14 = getelementptr inbounds i8, ptr %0, i64 4
  store i32 -1, ptr %14, align 4
  %15 = getelementptr inbounds i8, ptr %0, i64 8
  tail call void @llvm.memset.p0.i64(ptr noundef nonnull align 8 dereferenceable(16) %15, i8 0, i64 16, i1 false)
  br label %35

16:                                               ; preds = %3
  %17 = tail call noundef ptr @_ZNK19QAbstractProxyModel11sourceModelEv(ptr noundef nonnull align 8 dereferenceable(16) %1)
  %.not = icmp eq ptr %17, null
  br i1 %.not, label %18, label %21

18:                                               ; preds = %16
  store i32 -1, ptr %0, align 8
  %19 = getelementptr inbounds i8, ptr %0, i64 4
  store i32 -1, ptr %19, align 4
  %20 = getelementptr inbounds i8, ptr %0, i64 8
  tail call void @llvm.memset.p0.i64(ptr noundef nonnull align 8 dereferenceable(16) %20, i8 0, i64 16, i1 false)
  br label %35

21:                                               ; preds = %16
  call void @_ZNK21QSortFilterProxyModel11mapToSourceERK11QModelIndex(ptr dead_on_unwind nonnull writable sret(%class.QModelIndex) align 8 %4, ptr noundef nonnull align 8 dereferenceable(16) %1, ptr noundef nonnull align 8 dereferenceable(24) %2)
  %22 = call noundef ptr @_ZNK19QAbstractProxyModel11sourceModelEv(ptr noundef nonnull align 8 dereferenceable(16) %1)
  %23 = load i32, ptr %4, align 8
  %24 = load i32, ptr %8, align 4
  %25 = sext i32 %24 to i64
  %26 = getelementptr inbounds i8, ptr %1, i64 56
  %27 = load ptr, ptr %26, align 8
  %28 = getelementptr i32, ptr %27, i64 %25
  %29 = load i32, ptr %28, align 4
  store i32 -1, ptr %5, align 8
  %30 = getelementptr inbounds i8, ptr %5, i64 4
  store i32 -1, ptr %30, align 4
  %31 = getelementptr inbounds i8, ptr %5, i64 8
  call void @llvm.memset.p0.i64(ptr noundef nonnull align 8 dereferenceable(16) %31, i8 0, i64 16, i1 false)
  %32 = load ptr, ptr %22, align 8
  %33 = getelementptr inbounds i8, ptr %32, i64 96
  %34 = load ptr, ptr %33, align 8
  call void %34(ptr dead_on_unwind writable sret(%class.QModelIndex) align 8 %0, ptr noundef nonnull align 8 dereferenceable(16) %22, i32 noundef %23, i32 noundef %29, ptr noundef nonnull align 8 dereferenceable(24) %5)
  br label %35

35:                                               ; preds = %21, %18, %_ZNK11QModelIndex7isValidEv.exit.thread
  ret void
}